target datalayout = "e-m:e-p270:32:32-p271:32:32-p272:64:64-i64:64-i128:128-f80:128-n8:16:32:64-S128"
target triple = "x86_64-pc-linux-gnu"

%"struct.std::atomic.3" = type { %"struct.std::__atomic_base.4" }
%"struct.std::__atomic_base.4" = type { i64 }
%"class.std::chrono::duration" = type { i64 }
%"struct.folly::detail::EventBasePoller::Stats" = type { i32, i32, i64, i64, %"class.std::chrono::duration", %"class.std::chrono::duration", %"class.std::chrono::duration", %"class.std::chrono::duration", %"class.std::chrono::duration", %"class.std::chrono::duration" }
%"class.folly::detail::EventBasePoller" = type { ptr, %"struct.folly::Synchronized" }
%"struct.folly::Synchronized" = type <{ %"struct.folly::detail::EventBasePoller::Stats", %"class.folly::SharedMutexImpl", [4 x i8] }>
%"class.folly::SharedMutexImpl" = type { %"struct.std::atomic" }
%"struct.std::atomic" = type { %"struct.std::__atomic_base" }
%"struct.std::__atomic_base" = type { i32 }
%"class.folly::detail::(anonymous namespace)::EventBasePollerImpl" = type { %"class.folly::detail::EventBasePoller", i8, %"class.std::vector", %"struct.std::atomic.3", %"struct.folly::detail::(anonymous namespace)::EventBasePollerImpl::Event", %"class.std::vector.19", %"class.std::unique_ptr.24", %"class.std::vector.32", %"struct.std::atomic.37", %"class.folly::detail::(anonymous namespace)::Queue" }
%"class.std::vector" = type { %"struct.std::_Vector_base" }
%"struct.std::_Vector_base" = type { %"struct.std::_Vector_base<folly::detail::(anonymous namespace)::EventBasePollerImpl::Event *, std::allocator<folly::detail::(anonymous namespace)::EventBasePollerImpl::Event *>>::_Vector_impl" }
%"struct.std::_Vector_base<folly::detail::(anonymous namespace)::EventBasePollerImpl::Event *, std::allocator<folly::detail::(anonymous namespace)::EventBasePollerImpl::Event *>>::_Vector_impl" = type { %"struct.std::_Vector_base<folly::detail::(anonymous namespace)::EventBasePollerImpl::Event *, std::allocator<folly::detail::(anonymous namespace)::EventBasePollerImpl::Event *>>::_Vector_impl_data" }
%"struct.std::_Vector_base<folly::detail::(anonymous namespace)::EventBasePollerImpl::Event *, std::allocator<folly::detail::(anonymous namespace)::EventBasePollerImpl::Event *>>::_Vector_impl_data" = type { ptr, ptr, ptr }
%"struct.folly::detail::(anonymous namespace)::EventBasePollerImpl::Event" = type { %"class.folly::detail::EventBasePoller::Handle", ptr, i32, i8, ptr, i8, %"class.folly::Baton" }
%"class.folly::detail::EventBasePoller::Handle" = type { ptr, ptr }
%"class.folly::Baton" = type { %"struct.std::atomic" }
%"class.std::vector.19" = type { %"struct.std::_Vector_base.20" }
%"struct.std::_Vector_base.20" = type { %"struct.std::_Vector_base<std::unique_ptr<folly::detail::(anonymous namespace)::EventBasePollerImpl::Event>, std::allocator<std::unique_ptr<folly::detail::(anonymous namespace)::EventBasePollerImpl::Event>>>::_Vector_impl" }
%"struct.std::_Vector_base<std::unique_ptr<folly::detail::(anonymous namespace)::EventBasePollerImpl::Event>, std::allocator<std::unique_ptr<folly::detail::(anonymous namespace)::EventBasePollerImpl::Event>>>::_Vector_impl" = type { %"struct.std::_Vector_base<std::unique_ptr<folly::detail::(anonymous namespace)::EventBasePollerImpl::Event>, std::allocator<std::unique_ptr<folly::detail::(anonymous namespace)::EventBasePollerImpl::Event>>>::_Vector_impl_data" }
%"struct.std::_Vector_base<std::unique_ptr<folly::detail::(anonymous namespace)::EventBasePollerImpl::Event>, std::allocator<std::unique_ptr<folly::detail::(anonymous namespace)::EventBasePollerImpl::Event>>>::_Vector_impl_data" = type { ptr, ptr, ptr }
%"class.std::unique_ptr.24" = type { %"struct.std::__uniq_ptr_data.25" }
%"struct.std::__uniq_ptr_data.25" = type { %"class.std::__uniq_ptr_impl.26" }
%"class.std::__uniq_ptr_impl.26" = type { %"class.std::tuple.27" }
%"class.std::tuple.27" = type { %"struct.std::_Tuple_impl.28" }
%"struct.std::_Tuple_impl.28" = type { %"struct.std::_Head_base.31" }
%"struct.std::_Head_base.31" = type { ptr }
%"class.std::vector.32" = type { %"struct.std::_Vector_base.33" }
%"struct.std::_Vector_base.33" = type { %"struct.std::_Vector_base<folly::detail::EventBasePoller::Handle *, std::allocator<folly::detail::EventBasePoller::Handle *>>::_Vector_impl" }
%"struct.std::_Vector_base<folly::detail::EventBasePoller::Handle *, std::allocator<folly::detail::EventBasePoller::Handle *>>::_Vector_impl" = type { %"struct.std::_Vector_base<folly::detail::EventBasePoller::Handle *, std::allocator<folly::detail::EventBasePoller::Handle *>>::_Vector_impl_data" }
%"struct.std::_Vector_base<folly::detail::EventBasePoller::Handle *, std::allocator<folly::detail::EventBasePoller::Handle *>>::_Vector_impl_data" = type { ptr, ptr, ptr }
%"struct.std::atomic.37" = type { %"struct.std::__atomic_base.38" }
%"struct.std::__atomic_base.38" = type { i8 }
%"class.folly::detail::(anonymous namespace)::Queue" = type { %"struct.std::atomic.39" }
%"struct.std::atomic.39" = type { %"struct.std::__atomic_base.40" }
%"struct.std::__atomic_base.40" = type { ptr }
%"class.google::LogMessageVoidify" = type { i8 }
%"class.google::ErrnoLogMessage" = type { %"class.google::LogMessage" }
%"class.google::LogMessage" = type { ptr, ptr }
%"class.std::ios_base" = type { ptr, i64, i64, i32, i32, i32, ptr, %"struct.std::ios_base::_Words", [8 x %"struct.std::ios_base::_Words"], i32, ptr, %"class.std::locale" }
%"struct.std::ios_base::_Words" = type { ptr, i64 }
%"class.std::locale" = type { ptr }

@.str.5 = private unnamed_addr constant [124 x i8] c"generated/home/dtcxzyw/WorkSpace/Projects/compilers/llvm-opt-benchmark/bench/folly/folly/folly/io/async/EventBasePoller.cpp\00", align 1
@.str.28 = private unnamed_addr constant [34 x i8] c"Check failed: ret == sizeof(val) \00", align 1

; Function Attrs: inlinehint mustprogress nounwind uwtable
define linkonce_odr noundef i32 @_ZStorSt12_Ios_IostateS_(i32 noundef %0, i32 noundef %1) #9 comdat {
  %3 = alloca i32, align 4
  %4 = alloca i32, align 4
  store i32 %0, ptr %3, align 4, !tbaa !278
  store i32 %1, ptr %4, align 4, !tbaa !278
  %5 = load i32, ptr %3, align 4, !tbaa !278
  %6 = load i32, ptr %4, align 4, !tbaa !278
  %7 = or i32 %5, %6
  ret i32 %7
}

; Function Attrs: mustprogress nounwind uwtable
define available_externally noundef i32 @_ZNKSt9basic_iosIcSt11char_traitsIcEE7rdstateEv(ptr noundef nonnull align 8 dereferenceable(264) %0) #0 align 2 {
  %2 = alloca ptr, align 8
  store ptr %0, ptr %2, align 8, !tbaa !276
  %3 = load ptr, ptr %2, align 8
  %4 = getelementptr inbounds nuw %"class.std::ios_base", ptr %3, i32 0, i32 5
  %5 = load i32, ptr %4, align 8, !tbaa !280
  ret i32 %5
}

; Function Attrs: mustprogress nounwind uwtable
define linkonce_odr noundef i64 @_ZNSt11char_traitsIcE6lengthEPKc(ptr noundef %0) #0 comdat align 2 {
  %2 = alloca ptr, align 8
  store ptr %0, ptr %2, align 8, !tbaa !18
  %3 = load ptr, ptr %2, align 8, !tbaa !18
  %4 = call i64 @strlen(ptr noundef %3) #13
  ret i64 %4
}

; Function Attrs: mustprogress uwtable
define available_externally void @_ZNSt9basic_iosIcSt11char_traitsIcEE8setstateESt12_Ios_Iostate(ptr noundef nonnull align 8 dereferenceable(264) %0, i32 noundef %1) #4 align 2 {
  %3 = alloca ptr, align 8
  %4 = alloca i32, align 4
  store ptr %0, ptr %3, align 8, !tbaa !276
  store i32 %1, ptr %4, align 4, !tbaa !278
  %5 = load ptr, ptr %3, align 8
  %6 = call noundef i32 @_ZNKSt9basic_iosIcSt11char_traitsIcEE7rdstateEv(ptr noundef nonnull align 8 dereferenceable(264) %5)
  %7 = load i32, ptr %4, align 4, !tbaa !278
  %8 = call noundef i32 @_ZStorSt12_Ios_IostateS_(i32 noundef %6, i32 noundef %7)
  call void @_ZNSt9basic_iosIcSt11char_traitsIcEE5clearESt12_Ios_Iostate(ptr noundef nonnull align 8 dereferenceable(264) %5, i32 noundef %8)
  ret void
}

; Function Attrs: mustprogress nounwind uwtable
define linkonce_odr void @_ZN6google17LogMessageVoidifyanERSo(ptr noundef nonnull align 1 dereferenceable(1) %0, ptr noundef nonnull align 8 dereferenceable(8) %1) #0 comdat align 2 {
  %3 = alloca ptr, align 8
  %4 = alloca ptr, align 8
  store ptr %0, ptr %3, align 8, !tbaa !191
  store ptr %1, ptr %4, align 8, !tbaa !193
  ret void
}

; Function Attrs: mustprogress uwtable
define available_externally noundef nonnull align 8 dereferenceable(8) ptr @_ZNSolsEl(ptr noundef nonnull align 8 dereferenceable(8) %0, i64 noundef %1) #4 align 2 {
  %3 = alloca ptr, align 8
  %4 = alloca i64, align 8
  store ptr %0, ptr %3, align 8, !tbaa !193
  store i64 %1, ptr %4, align 8, !tbaa !28
  %5 = load ptr, ptr %3, align 8
  %6 = load i64, ptr %4, align 8, !tbaa !28
  %7 = call noundef nonnull align 8 dereferenceable(8) ptr @_ZNSo9_M_insertIlEERSoT_(ptr noundef nonnull align 8 dereferenceable(8) %5, i64 noundef %6)
  ret ptr %7
}

; Function Attrs: inlinehint mustprogress uwtable
define available_externally noundef nonnull align 8 dereferenceable(8) ptr @_ZStlsISt11char_traitsIcEERSt13basic_ostreamIcT_ES5_PKc(ptr noundef nonnull align 8 dereferenceable(8) %0, ptr noundef %1) #2 {
  %3 = alloca ptr, align 8
  %4 = alloca ptr, align 8
  store ptr %0, ptr %3, align 8, !tbaa !193
  store ptr %1, ptr %4, align 8, !tbaa !18
  %5 = load ptr, ptr %4, align 8, !tbaa !18
  %6 = icmp ne ptr %5, null
  br i1 %6, label %13, label %7

7:                                                ; preds = %2
  %8 = load ptr, ptr %3, align 8, !tbaa !193
  %9 = load ptr, ptr %8, align 8, !tbaa !66
  %10 = getelementptr i8, ptr %9, i64 -24
  %11 = load i64, ptr %10, align 8
  %12 = getelementptr inbounds i8, ptr %8, i64 %11
  call void @_ZNSt9basic_iosIcSt11char_traitsIcEE8setstateESt12_Ios_Iostate(ptr noundef nonnull align 8 dereferenceable(264) %12, i32 noundef 1)
  br label %19

13:                                               ; preds = %2
  %14 = load ptr, ptr %3, align 8, !tbaa !193
  %15 = load ptr, ptr %4, align 8, !tbaa !18
  %16 = load ptr, ptr %4, align 8, !tbaa !18
  %17 = call noundef i64 @_ZNSt11char_traitsIcE6lengthEPKc(ptr noundef %16)
  %18 = call noundef nonnull align 8 dereferenceable(8) ptr @_ZSt16__ostream_insertIcSt11char_traitsIcEERSt13basic_ostreamIT_T0_ES6_PKS3_l(ptr noundef nonnull align 8 dereferenceable(8) %14, ptr noundef %15, i64 noundef %17)
  br label %19

19:                                               ; preds = %13, %7
  %20 = load ptr, ptr %3, align 8, !tbaa !193
  ret ptr %20
}

; Function Attrs: mustprogress nounwind uwtable
define linkonce_odr void @_ZN6google17LogMessageVoidifyC2Ev(ptr noundef nonnull align 1 dereferenceable(1) %0) unnamed_addr #0 comdat align 2 {
  %2 = alloca ptr, align 8
  store ptr %0, ptr %2, align 8, !tbaa !191
  ret void
}

; Function Attrs: mustprogress uwtable
define internal void @_ZN5folly6detail12_GLOBAL__N_119EventBasePollerImpl10notifyEvfdEv(ptr noundef nonnull align 8 dereferenceable(248) %0) #4 align 2 personality ptr @__gxx_personality_v0 {
  %2 = alloca ptr, align 8
  %3 = alloca i64, align 8
  %4 = alloca i64, align 8
  %5 = alloca %"class.google::LogMessageVoidify", align 1
  %6 = alloca %"class.google::ErrnoLogMessage", align 8
  %7 = alloca i1, align 1
  %8 = alloca { i64, i64 }, align 8
  %9 = alloca i1, align 1
  %10 = alloca ptr, align 8
  %11 = alloca i32, align 4
  store ptr %0, ptr %2, align 8, !tbaa !151
  %12 = load ptr, ptr %2, align 8
  call void @llvm.lifetime.start.p0(i64 8, ptr %3) #13
  store i64 1, ptr %3, align 8, !tbaa !28
  call void @llvm.lifetime.start.p0(i64 8, ptr %4) #13
  %13 = getelementptr inbounds nuw %"class.folly::detail::(anonymous namespace)::EventBasePollerImpl", ptr %12, i32 0, i32 4
  %14 = getelementptr inbounds nuw %"struct.folly::detail::(anonymous namespace)::EventBasePollerImpl::Event", ptr %13, i32 0, i32 2
  %15 = load i32, ptr %14, align 8, !tbaa !154
  %16 = call noundef i64 @_ZN5folly10writeNoIntEiPKvm(i32 noundef %15, ptr noundef %3, i64 noundef 8)
  store i64 %16, ptr %4, align 8, !tbaa !28
  %17 = load i64, ptr %4, align 8, !tbaa !28
  %18 = icmp eq i64 %17, 8
  %19 = xor i1 %18, true
  %20 = zext i1 %19 to i64
  %21 = call i64 @llvm.expect.i64(i64 %20, i64 0)
  %22 = icmp ne i64 %21, 0
  call void @llvm.lifetime.start.p0(i64 1, ptr %5) #13
  store i1 false, ptr %7, align 1
  store i1 false, ptr %9, align 1
  br i1 %22, label %24, label %23

23:                                               ; preds = %1
  br label %33

24:                                               ; preds = %1
  call void @_ZN6google17LogMessageVoidifyC2Ev(ptr noundef nonnull align 1 dereferenceable(1) %5)
  call void @llvm.lifetime.start.p0(i64 16, ptr %6) #13
  store i1 true, ptr %7, align 1
  call void @llvm.lifetime.start.p0(i64 16, ptr %8) #13
  store { i64, i64 } { i64 ptrtoint (ptr @_ZN6google10LogMessage9SendToLogEv to i64), i64 0 }, ptr %8, align 8, !tbaa !34
  call void @_ZN6google15ErrnoLogMessageC1EPKciiiMNS_10LogMessageEFvvE(ptr noundef nonnull align 8 dereferenceable(16) %6, ptr noundef @.str.5, i32 noundef 300, i32 noundef 3, i32 noundef 0, ptr noundef byval({ i64, i64 }) align 8 %8)
  call void @llvm.lifetime.end.p0(i64 16, ptr %8) #13
  store i1 true, ptr %9, align 1
  %25 = invoke noundef nonnull align 8 dereferenceable(8) ptr @_ZN6google10LogMessage6streamEv(ptr noundef nonnull align 8 dereferenceable(16) %6)
          to label %26 unwind label %40

26:                                               ; preds = %24
  %27 = invoke noundef nonnull align 8 dereferenceable(8) ptr @_ZStlsISt11char_traitsIcEERSt13basic_ostreamIcT_ES5_PKc(ptr noundef nonnull align 8 dereferenceable(8) %25, ptr noundef @.str.28)
          to label %28 unwind label %40

28:                                               ; preds = %26
  %29 = load i64, ptr %4, align 8, !tbaa !28
  %30 = invoke noundef nonnull align 8 dereferenceable(8) ptr @_ZNSolsEl(ptr noundef nonnull align 8 dereferenceable(8) %27, i64 noundef %29)
          to label %31 unwind label %40

31:                                               ; preds = %28
  invoke void @_ZN6google17LogMessageVoidifyanERSo(ptr noundef nonnull align 1 dereferenceable(1) %5, ptr noundef nonnull align 8 dereferenceable(8) %30)
          to label %32 unwind label %40

32:                                               ; preds = %31
  br label %33

33:                                               ; preds = %32, %23
  %34 = load i1, ptr %9, align 1
  br i1 %34, label %35, label %36

35:                                               ; preds = %33
  call void @_ZN6google15ErrnoLogMessageD1Ev(ptr noundef nonnull align 8 dereferenceable(16) %6) #13
  br label %36

36:                                               ; preds = %35, %33
  %37 = load i1, ptr %7, align 1
  br i1 %37, label %38, label %39

38:                                               ; preds = %36
  call void @llvm.lifetime.end.p0(i64 16, ptr %6) #13
  br label %39

39:                                               ; preds = %38, %36
  call void @llvm.lifetime.end.p0(i64 1, ptr %5) #13
  call void @llvm.lifetime.end.p0(i64 8, ptr %4) #13
  call void @llvm.lifetime.end.p0(i64 8, ptr %3) #13
  ret void

40:                                               ; preds = %31, %28, %26, %24
  %41 = landingpad { ptr, i32 }
          cleanup
  %42 = extractvalue { ptr, i32 } %41, 0
  store ptr %42, ptr %10, align 8
  %43 = extractvalue { ptr, i32 } %41, 1
  store i32 %43, ptr %11, align 4
  %44 = load i1, ptr %9, align 1
  br i1 %44, label %45, label %46

45:                                               ; preds = %40
  call void @_ZN6google15ErrnoLogMessageD1Ev(ptr noundef nonnull align 8 dereferenceable(16) %6) #13
  br label %46

46:                                               ; preds = %45, %40
  %47 = load i1, ptr %7, align 1
  br i1 %47, label %48, label %49

48:                                               ; preds = %46
  call void @llvm.lifetime.end.p0(i64 16, ptr %6) #13
  br label %49

49:                                               ; preds = %48, %46
  call void @llvm.lifetime.end.p0(i64 1, ptr %5) #13
  call void @llvm.lifetime.end.p0(i64 8, ptr %4) #13
  call void @llvm.lifetime.end.p0(i64 8, ptr %3) #13
  br label %50

50:                                               ; preds = %49
  %51 = load ptr, ptr %10, align 8
  %52 = load i32, ptr %11, align 4
  %53 = insertvalue { ptr, i32 } poison, ptr %51, 0
  %54 = insertvalue { ptr, i32 } %53, i32 %52, 1
  resume { ptr, i32 } %54
}