; Function Attrs: mustprogress uwtable
define internal fastcc void @_ZN5folly6detail12_GLOBAL__N_119EventBasePollerImpl10notifyEvfdEv(i32 %.152.val) unnamed_addr #2 align 2 personality ptr @__gxx_personality_v0 {
  %1 = alloca i64, align 8
  %2 = alloca %"class.google::ErrnoLogMessage", align 8
  %3 = alloca { i64, i64 }, align 8
  call void @llvm.lifetime.start.p0(i64 8, ptr nonnull %1) #26
  store i64 1, ptr %1, align 8, !tbaa !13
  %4 = call noundef i64 @_ZN5folly10writeNoIntEiPKvm(i32 noundef %.152.val, ptr noundef nonnull %1, i64 noundef 8)
  %.not.not = icmp eq i64 %4, 8
  br i1 %.not.not, label %.critedge9, label %5, !prof !33

5:                                                ; preds = %0
  call void @llvm.lifetime.start.p0(i64 16, ptr nonnull %2) #26
  call void @llvm.lifetime.start.p0(i64 16, ptr nonnull %3) #26
  store i64 ptrtoint (ptr @_ZN6google10LogMessage9SendToLogEv to i64), ptr %3, align 8, !tbaa !17
  %.fca.1.gep = getelementptr inbounds nuw i8, ptr %3, i64 8
  store i64 0, ptr %.fca.1.gep, align 8, !tbaa !17
  call void @_ZN6google15ErrnoLogMessageC1EPKciiiMNS_10LogMessageEFvvE(ptr noundef nonnull align 8 dereferenceable(16) %2, ptr noundef nonnull @.str.5, i32 noundef 300, i32 noundef 3, i32 noundef 0, ptr noundef nonnull byval({ i64, i64 }) align 8 %3)
  call void @llvm.lifetime.end.p0(i64 16, ptr nonnull %3) #26
  %6 = invoke noundef nonnull align 8 dereferenceable(8) ptr @_ZN6google10LogMessage6streamEv(ptr noundef nonnull align 8 dereferenceable(16) %2)
          to label %7 unwind label %10

7:                                                ; preds = %5
  %8 = invoke noundef nonnull align 8 dereferenceable(8) ptr @_ZSt16__ostream_insertIcSt11char_traitsIcEERSt13basic_ostreamIT_T0_ES6_PKS3_l(ptr noundef nonnull align 8 dereferenceable(8) %6, ptr noundef nonnull @.str.28, i64 noundef 33)
          to label %_ZStlsISt11char_traitsIcEERSt13basic_ostreamIcT_ES5_PKc.exit unwind label %10

_ZStlsISt11char_traitsIcEERSt13basic_ostreamIcT_ES5_PKc.exit: ; preds = %7
  %9 = invoke noundef nonnull align 8 dereferenceable(8) ptr @_ZNSo9_M_insertIlEERSoT_(ptr noundef nonnull align 8 dereferenceable(8) %6, i64 noundef %4)
          to label %.critedge unwind label %10

.critedge:                                        ; preds = %_ZStlsISt11char_traitsIcEERSt13basic_ostreamIcT_ES5_PKc.exit
  call void @_ZN6google15ErrnoLogMessageD1Ev(ptr noundef nonnull align 8 dereferenceable(16) %2) #26
  call void @llvm.lifetime.end.p0(i64 16, ptr nonnull %2) #26
  br label %.critedge9

.critedge9:                                       ; preds = %0, %.critedge
  call void @llvm.lifetime.end.p0(i64 8, ptr nonnull %1) #26
  ret void

10:                                               ; preds = %_ZStlsISt11char_traitsIcEERSt13basic_ostreamIcT_ES5_PKc.exit, %7, %5
  %11 = landingpad { ptr, i32 }
          cleanup
  call void @_ZN6google15ErrnoLogMessageD1Ev(ptr noundef nonnull align 8 dereferenceable(16) %2) #26
  call void @llvm.lifetime.end.p0(i64 16, ptr nonnull %2) #26
  call void @llvm.lifetime.end.p0(i64 8, ptr nonnull %1) #26
  resume { ptr, i32 } %11
}